target datalayout = "e-m:e-p270:32:32-p271:32:32-p272:64:64-i64:64-i128:128-f80:128-n8:16:32:64-S128"
target triple = "x86_64-unknown-linux-gnu"

%"struct.std::atomic.149" = type { %"struct.std::__atomic_base.150" }
%"struct.std::__atomic_base.150" = type { i8 }
%"struct.google::protobuf::internal::DescriptorTable" = type { i8, i8, i32, ptr, ptr, ptr, ptr, i32, i32, ptr, ptr, ptr, ptr, ptr, ptr }

@_ZN6google8protobuf8internal28init_protobuf_defaults_stateE = external global %"struct.std::atomic.149", align 1

; Function Attrs: mustprogress nounwind uwtable
define linkonce_odr noundef i32 @_ZStanSt12memory_orderSt23__memory_order_modifier(i32 noundef %__m, i32 noundef %__mod) #4 comdat {
entry:
  %__m.addr = alloca i32, align 4
  %__mod.addr = alloca i32, align 4
  store i32 %__m, ptr %__m.addr, align 4
  store i32 %__mod, ptr %__mod.addr, align 4
  %0 = load i32, ptr %__m.addr, align 4
  %1 = load i32, ptr %__mod.addr, align 4
  %and = and i32 %0, %1
  ret i32 %and
}

; Function Attrs: mustprogress nounwind uwtable
define linkonce_odr hidden noundef zeroext i1 @_ZNKSt6atomicIbE4loadESt12memory_order(ptr noundef nonnull align 1 dereferenceable(1) %this, i32 noundef %__m) #4 comdat align 2 {
entry:
  %this.addr.i = alloca ptr, align 8
  %__m.addr.i = alloca i32, align 4
  %__b.i = alloca i32, align 4
  %atomic-temp.i = alloca i8, align 1
  %this.addr = alloca ptr, align 8
  %__m.addr = alloca i32, align 4
  store ptr %this, ptr %this.addr, align 8
  store i32 %__m, ptr %__m.addr, align 4
  %this1 = load ptr, ptr %this.addr, align 8
  %_M_base = getelementptr inbounds %"struct.std::atomic.149", ptr %this1, i32 0, i32 0
  %0 = load i32, ptr %__m.addr, align 4
  store ptr %_M_base, ptr %this.addr.i, align 8
  store i32 %0, ptr %__m.addr.i, align 4
  %this1.i = load ptr, ptr %this.addr.i, align 8
  %1 = load i32, ptr %__m.addr.i, align 4
  %call.i = call noundef i32 @_ZStanSt12memory_orderSt23__memory_order_modifier(i32 noundef %1, i32 noundef 65535)
  store i32 %call.i, ptr %__b.i, align 4
  %2 = load i32, ptr %__m.addr.i, align 4
  switch i32 %2, label %monotonic.i [
    i32 1, label %acquire.i
    i32 2, label %acquire.i
    i32 5, label %seqcst.i
  ]

monotonic.i:                                      ; preds = %entry
  %3 = load atomic i8, ptr %this1.i monotonic, align 1
  store i8 %3, ptr %atomic-temp.i, align 1
  br label %_ZNKSt13__atomic_baseIbE4loadESt12memory_order.exit

acquire.i:                                        ; preds = %entry, %entry
  %4 = load atomic i8, ptr %this1.i acquire, align 1
  store i8 %4, ptr %atomic-temp.i, align 1
  br label %_ZNKSt13__atomic_baseIbE4loadESt12memory_order.exit

seqcst.i:                                         ; preds = %entry
  %5 = load atomic i8, ptr %this1.i seq_cst, align 1
  store i8 %5, ptr %atomic-temp.i, align 1
  br label %_ZNKSt13__atomic_baseIbE4loadESt12memory_order.exit

_ZNKSt13__atomic_baseIbE4loadESt12memory_order.exit: ; preds = %seqcst.i, %acquire.i, %monotonic.i
  %6 = load i8, ptr %atomic-temp.i, align 1
  %tobool.i = trunc i8 %6 to i1
  ret i1 %tobool.i
}

; Function Attrs: mustprogress nounwind uwtable
define hidden void @_ZN6google8protobuf8internal26InitializeLazyExtensionSetEv() #4 {
entry:
  ret void
}

; Function Attrs: mustprogress nounwind uwtable
define void @_ZN6google8protobuf8internal40InitializeFileDescriptorDefaultInstancesEv() #4 {
entry:
  ret void
}

; Function Attrs: mustprogress uwtable
define linkonce_odr void @_ZN6google8protobuf8internal20InitProtobufDefaultsEv() #5 comdat {
entry:
  %call = call noundef zeroext i1 @_ZNKSt6atomicIbE4loadESt12memory_order(ptr noundef nonnull align 1 dereferenceable(1) @_ZN6google8protobuf8internal28init_protobuf_defaults_stateE, i32 noundef 2) #3
  %lnot = xor i1 %call, true
  br i1 %lnot, label %if.then, label %if.end

if.then:                                          ; preds = %entry
  call void @_ZN6google8protobuf8internal24InitProtobufDefaultsSlowEv()
  br label %if.end

if.end:                                           ; preds = %if.then, %entry
  ret void
}

; Function Attrs: mustprogress uwtable
define internal void @_ZN6google8protobuf12_GLOBAL__N_118AddDescriptorsImplEPKNS0_8internal15DescriptorTableE(ptr noundef %table) #5 {
entry:
  %table.addr = alloca ptr, align 8
  %num_deps = alloca i32, align 4
  %i = alloca i32, align 4
  store ptr %table, ptr %table.addr, align 8
  call void @_ZN6google8protobuf8internal20InitProtobufDefaultsEv()
  call void @_ZN6google8protobuf8internal40InitializeFileDescriptorDefaultInstancesEv()
  call void @_ZN6google8protobuf8internal26InitializeLazyExtensionSetEv()
  %0 = load ptr, ptr %table.addr, align 8
  %num_deps1 = getelementptr inbounds %"struct.google::protobuf::internal::DescriptorTable", ptr %0, i32 0, i32 7
  %1 = load i32, ptr %num_deps1, align 8
  store i32 %1, ptr %num_deps, align 4
  store i32 0, ptr %i, align 4
  br label %for.cond

for.cond:                                         ; preds = %for.inc, %entry
  %2 = load i32, ptr %i, align 4
  %3 = load i32, ptr %num_deps, align 4
  %cmp = icmp slt i32 %2, %3
  br i1 %cmp, label %for.body, label %for.end

for.body:                                         ; preds = %for.cond
  %4 = load ptr, ptr %table.addr, align 8
  %deps = getelementptr inbounds %"struct.google::protobuf::internal::DescriptorTable", ptr %4, i32 0, i32 6
  %5 = load ptr, ptr %deps, align 8
  %6 = load i32, ptr %i, align 4
  %idxprom = sext i32 %6 to i64
  %arrayidx = getelementptr inbounds ptr, ptr %5, i64 %idxprom
  %7 = load ptr, ptr %arrayidx, align 8
  %tobool = icmp ne ptr %7, null
  br i1 %tobool, label %if.then, label %if.end

if.then:                                          ; preds = %for.body
  %8 = load ptr, ptr %table.addr, align 8
  %deps2 = getelementptr inbounds %"struct.google::protobuf::internal::DescriptorTable", ptr %8, i32 0, i32 6
  %9 = load ptr, ptr %deps2, align 8
  %10 = load i32, ptr %i, align 4
  %idxprom3 = sext i32 %10 to i64
  %arrayidx4 = getelementptr inbounds ptr, ptr %9, i64 %idxprom3
  %11 = load ptr, ptr %arrayidx4, align 8
  call void @_ZN6google8protobuf8internal14AddDescriptorsEPKNS1_15DescriptorTableE(ptr noundef %11)
  br label %if.end

if.end:                                           ; preds = %if.then, %for.body
  br label %for.inc

for.inc:                                          ; preds = %if.end
  %12 = load i32, ptr %i, align 4
  %inc = add nsw i32 %12, 1
  store i32 %inc, ptr %i, align 4
  br label %for.cond, !llvm.loop !54

for.end:                                          ; preds = %for.cond
  %13 = load ptr, ptr %table.addr, align 8
  %descriptor = getelementptr inbounds %"struct.google::protobuf::internal::DescriptorTable", ptr %13, i32 0, i32 3
  %14 = load ptr, ptr %descriptor, align 8
  %15 = load ptr, ptr %table.addr, align 8
  %size = getelementptr inbounds %"struct.google::protobuf::internal::DescriptorTable", ptr %15, i32 0, i32 2
  %16 = load i32, ptr %size, align 4
  call void @_ZN6google8protobuf14DescriptorPool24InternalAddGeneratedFileEPKvi(ptr noundef %14, i32 noundef %16)
  %17 = load ptr, ptr %table.addr, align 8
  call void @_ZN6google8protobuf14MessageFactory29InternalRegisterGeneratedFileEPKNS0_8internal15DescriptorTableE(ptr noundef %17)
  ret void
}

; Function Attrs: mustprogress uwtable
define void @_ZN6google8protobuf8internal14AddDescriptorsEPKNS1_15DescriptorTableE(ptr noundef %table) #5 {
entry:
  %table.addr = alloca ptr, align 8
  store ptr %table, ptr %table.addr, align 8
  %0 = load ptr, ptr %table.addr, align 8
  %is_initialized = getelementptr inbounds %"struct.google::protobuf::internal::DescriptorTable", ptr %0, i32 0, i32 0
  %1 = load i8, ptr %is_initialized, align 8
  %tobool = trunc i8 %1 to i1
  br i1 %tobool, label %if.then, label %if.end

if.then:                                          ; preds = %entry
  br label %return

if.end:                                           ; preds = %entry
  %2 = load ptr, ptr %table.addr, align 8
  %is_initialized1 = getelementptr inbounds %"struct.google::protobuf::internal::DescriptorTable", ptr %2, i32 0, i32 0
  store i8 1, ptr %is_initialized1, align 8
  %3 = load ptr, ptr %table.addr, align 8
  call void @_ZN6google8protobuf12_GLOBAL__N_118AddDescriptorsImplEPKNS0_8internal15DescriptorTableE(ptr noundef %3)
  br label %return

return:                                           ; preds = %if.end, %if.then
  ret void
}