; Function Attrs: mustprogress uwtable
define void @_ZN6google8protobuf8internal14AddDescriptorsEPKNS1_15DescriptorTableE(ptr noundef %table) local_unnamed_addr #4 {
entry:
  %0 = load i8, ptr %table, align 8
  %1 = and i8 %0, 1
  %tobool.not = icmp eq i8 %1, 0
  br i1 %tobool.not, label %if.end, label %return

if.end:                                           ; preds = %entry
  store i8 1, ptr %table, align 8
  %2 = load atomic i8, ptr @_ZN6google8protobuf8internal28init_protobuf_defaults_stateE acquire, align 1
  %3 = and i8 %2, 1
  %tobool.i.i.not.i = icmp eq i8 %3, 0
  br i1 %tobool.i.i.not.i, label %if.then.i3, label %_ZN6google8protobuf8internal20InitProtobufDefaultsEv.exit

if.then.i3:                                       ; preds = %if.end
  tail call void @_ZN6google8protobuf8internal24InitProtobufDefaultsSlowEv()
  br label %_ZN6google8protobuf8internal20InitProtobufDefaultsEv.exit

_ZN6google8protobuf8internal20InitProtobufDefaultsEv.exit: ; preds = %if.end, %if.then.i3
  %num_deps1.i = getelementptr inbounds i8, ptr %table, i64 40
  %4 = load i32, ptr %num_deps1.i, align 8
  %cmp.i4 = icmp sgt i32 %4, 0
  br i1 %cmp.i4, label %for.body.i.lr.ph, label %_ZN6google8protobuf12_GLOBAL__N_118AddDescriptorsImplEPKNS0_8internal15DescriptorTableE.exit

for.body.i.lr.ph:                                 ; preds = %_ZN6google8protobuf8internal20InitProtobufDefaultsEv.exit
  %deps.i = getelementptr inbounds i8, ptr %table, i64 32
  %wide.trip.count = zext nneg i32 %4 to i64
  br label %for.body.i

for.body.i:                                       ; preds = %for.body.i.lr.ph, %for.inc.i
  %indvars.iv = phi i64 [ 0, %for.body.i.lr.ph ], [ %indvars.iv.next, %for.inc.i ]
  %5 = load ptr, ptr %deps.i, align 8
  %arrayidx.i = getelementptr inbounds ptr, ptr %5, i64 %indvars.iv
  %6 = load ptr, ptr %arrayidx.i, align 8
  %tobool.not.i = icmp eq ptr %6, null
  br i1 %tobool.not.i, label %for.inc.i, label %if.then.i

if.then.i:                                        ; preds = %for.body.i
  tail call void @_ZN6google8protobuf8internal14AddDescriptorsEPKNS1_15DescriptorTableE(ptr noundef nonnull %6)
  br label %for.inc.i

for.inc.i:                                        ; preds = %if.then.i, %for.body.i
  %indvars.iv.next = add nuw nsw i64 %indvars.iv, 1
  %exitcond.not = icmp eq i64 %indvars.iv.next, %wide.trip.count
  br i1 %exitcond.not, label %_ZN6google8protobuf12_GLOBAL__N_118AddDescriptorsImplEPKNS0_8internal15DescriptorTableE.exit, label %for.body.i, !llvm.loop !119

_ZN6google8protobuf12_GLOBAL__N_118AddDescriptorsImplEPKNS0_8internal15DescriptorTableE.exit: ; preds = %for.inc.i, %_ZN6google8protobuf8internal20InitProtobufDefaultsEv.exit
  %descriptor.i = getelementptr inbounds i8, ptr %table, i64 8
  %7 = load ptr, ptr %descriptor.i, align 8
  %size.i = getelementptr inbounds i8, ptr %table, i64 4
  %8 = load i32, ptr %size.i, align 4
  tail call void @_ZN6google8protobuf14DescriptorPool24InternalAddGeneratedFileEPKvi(ptr noundef %7, i32 noundef %8)
  tail call void @_ZN6google8protobuf14MessageFactory29InternalRegisterGeneratedFileEPKNS0_8internal15DescriptorTableE(ptr noundef nonnull %table)
  br label %return

return:                                           ; preds = %entry, %_ZN6google8protobuf12_GLOBAL__N_118AddDescriptorsImplEPKNS0_8internal15DescriptorTableE.exit
  ret void
}